; Function Attrs: mustprogress nounwind uwtable
define dso_local void @_ZN4llvm5APInt12initSlowCaseEmb(ptr noundef nonnull align 8 captures(none) dereferenceable(12) initializes((0, 8)) %0, i64 noundef %1, i1 noundef zeroext %2) local_unnamed_addr #0 align 2 {
  %4 = getelementptr inbounds nuw i8, ptr %0, i64 8
  %5 = load i32, ptr %4, align 8
  %6 = zext i32 %5 to i64
  %7 = add nuw nsw i64 %6, 63
  %8 = lshr i64 %7, 3
  %9 = and i64 %8, 1073741816
  %10 = tail call noalias noundef nonnull ptr @_Znam(i64 noundef %9) #21
  tail call void @llvm.memset.p0.i64(ptr nonnull align 8 %10, i8 0, i64 %9, i1 false)
  store ptr %10, ptr %0, align 8
  store i64 %1, ptr %10, align 8
  %11 = icmp slt i64 %1, 0
  %or.cond = and i1 %2, %11
  br i1 %or.cond, label %.preheader, label %.loopexit

.preheader:                                       ; preds = %3
  %12 = icmp ugt i32 %5, 64
  br i1 %12, label %.lr.ph, label %.loopexit.thread

.loopexit.thread:                                 ; preds = %.preheader
  %13 = add nuw nsw i32 %5, 63
  %14 = and i32 %13, 63
  %15 = xor i32 %14, 63
  %16 = zext nneg i32 %15 to i64
  %17 = lshr i64 -1, %16
  br label %32

.lr.ph:                                           ; preds = %.preheader, %.lr.ph
  %indvars.iv = phi i64 [ %indvars.iv.next, %.lr.ph ], [ 1, %.preheader ]
  %18 = load ptr, ptr %0, align 8
  %19 = getelementptr inbounds nuw i64, ptr %18, i64 %indvars.iv
  store i64 -1, ptr %19, align 8
  %indvars.iv.next = add nuw nsw i64 %indvars.iv, 1
  %20 = load i32, ptr %4, align 8
  %21 = zext i32 %20 to i64
  %22 = add nuw nsw i64 %21, 63
  %23 = lshr i64 %22, 6
  %24 = icmp samesign ult i64 %indvars.iv.next, %23
  br i1 %24, label %.lr.ph, label %.loopexit, !llvm.loop !4

.loopexit:                                        ; preds = %.lr.ph, %3
  %25 = phi i32 [ %5, %3 ], [ %20, %.lr.ph ]
  %26 = add i32 %25, 63
  %27 = and i32 %26, 63
  %28 = xor i32 %27, 63
  %29 = zext nneg i32 %28 to i64
  %30 = lshr i64 -1, %29
  %31 = icmp ult i32 %25, 65
  br i1 %31, label %32, label %38

32:                                               ; preds = %.loopexit.thread, %.loopexit
  %33 = phi i64 [ %17, %.loopexit.thread ], [ %30, %.loopexit ]
  %34 = phi i32 [ %5, %.loopexit.thread ], [ %25, %.loopexit ]
  %35 = icmp eq i32 %34, 0
  %spec.store.select.i = select i1 %35, i64 0, i64 %33
  %36 = load i64, ptr %0, align 8
  %37 = and i64 %36, %spec.store.select.i
  store i64 %37, ptr %0, align 8
  br label %_ZN4llvm5APInt15clearUnusedBitsEv.exit

38:                                               ; preds = %.loopexit
  %39 = load ptr, ptr %0, align 8
  %40 = zext i32 %25 to i64
  %41 = add nuw nsw i64 %40, 63
  %42 = lshr i64 %41, 6
  %43 = add nuw nsw i64 %42, 4294967295
  %44 = and i64 %43, 4294967295
  %45 = getelementptr inbounds nuw i64, ptr %39, i64 %44
  %46 = load i64, ptr %45, align 8
  %47 = and i64 %46, %30
  store i64 %47, ptr %45, align 8
  br label %_ZN4llvm5APInt15clearUnusedBitsEv.exit

_ZN4llvm5APInt15clearUnusedBitsEv.exit:           ; preds = %32, %38
  ret void
}